target datalayout = "e-m:e-p270:32:32-p271:32:32-p272:64:64-i64:64-i128:128-f80:128-n8:16:32:64-S128"
target triple = "x86_64-unknown-linux-gnu"

%"class.icu_75::FunctionReplacer" = type { %"class.icu_75::UnicodeFunctor", %"class.icu_75::UnicodeReplacer", ptr, ptr }
%"class.icu_75::UnicodeFunctor" = type { %"class.icu_75::UObject" }
%"class.icu_75::UObject" = type { ptr }
%"class.icu_75::UnicodeReplacer" = type { ptr }

; Function Attrs: mustprogress uwtable
define noundef i32 @_ZN6icu_7516FunctionReplacer7replaceERNS_11ReplaceableEiiRi(ptr noundef nonnull align 8 dereferenceable(32) %this, ptr noundef nonnull align 8 dereferenceable(8) %text, i32 noundef %start, i32 noundef %limit, ptr noundef nonnull align 4 dereferenceable(4) %cursor) unnamed_addr #1 align 2 {
entry:
  %this.addr = alloca ptr, align 8
  %text.addr = alloca ptr, align 8
  %start.addr = alloca i32, align 4
  %limit.addr = alloca i32, align 4
  %cursor.addr = alloca ptr, align 8
  %len = alloca i32, align 4
  store ptr %this, ptr %this.addr, align 8
  store ptr %text, ptr %text.addr, align 8
  store i32 %start, ptr %start.addr, align 4
  store i32 %limit, ptr %limit.addr, align 4
  store ptr %cursor, ptr %cursor.addr, align 8
  %this1 = load ptr, ptr %this.addr, align 8
  %replacer = getelementptr inbounds %"class.icu_75::FunctionReplacer", ptr %this1, i32 0, i32 3
  %0 = load ptr, ptr %replacer, align 8
  %vtable = load ptr, ptr %0, align 8
  %vfn = getelementptr inbounds ptr, ptr %vtable, i64 5
  %1 = load ptr, ptr %vfn, align 8
  %call = call noundef ptr %1(ptr noundef nonnull align 8 dereferenceable(8) %0)
  %2 = load ptr, ptr %text.addr, align 8
  %3 = load i32, ptr %start.addr, align 4
  %4 = load i32, ptr %limit.addr, align 4
  %5 = load ptr, ptr %cursor.addr, align 8
  %vtable2 = load ptr, ptr %call, align 8
  %vfn3 = getelementptr inbounds ptr, ptr %vtable2, i64 2
  %6 = load ptr, ptr %vfn3, align 8
  %call4 = call noundef i32 %6(ptr noundef nonnull align 8 dereferenceable(8) %call, ptr noundef nonnull align 8 dereferenceable(8) %2, i32 noundef %3, i32 noundef %4, ptr noundef nonnull align 4 dereferenceable(4) %5)
  store i32 %call4, ptr %len, align 4
  %7 = load i32, ptr %start.addr, align 4
  %8 = load i32, ptr %len, align 4
  %add = add nsw i32 %7, %8
  store i32 %add, ptr %limit.addr, align 4
  %translit = getelementptr inbounds %"class.icu_75::FunctionReplacer", ptr %this1, i32 0, i32 2
  %9 = load ptr, ptr %translit, align 8
  %10 = load ptr, ptr %text.addr, align 8
  %11 = load i32, ptr %start.addr, align 4
  %12 = load i32, ptr %limit.addr, align 4
  %vtable5 = load ptr, ptr %9, align 8
  %vfn6 = getelementptr inbounds ptr, ptr %vtable5, i64 4
  %13 = load ptr, ptr %vfn6, align 8
  %call7 = call noundef i32 %13(ptr noundef nonnull align 8 dereferenceable(84) %9, ptr noundef nonnull align 8 dereferenceable(8) %10, i32 noundef %11, i32 noundef %12)
  store i32 %call7, ptr %limit.addr, align 4
  %14 = load i32, ptr %limit.addr, align 4
  %15 = load i32, ptr %start.addr, align 4
  %sub = sub nsw i32 %14, %15
  ret i32 %sub
}