; Function Attrs: mustprogress uwtable
define noundef i32 @_ZN6icu_7516FunctionReplacer7replaceERNS_11ReplaceableEiiRi(ptr nocapture noundef nonnull readonly align 8 dereferenceable(32) %this, ptr noundef nonnull align 8 dereferenceable(8) %text, i32 noundef %start, i32 noundef %limit, ptr noundef nonnull align 4 dereferenceable(4) %cursor) unnamed_addr #2 align 2 {
entry:
  %replacer = getelementptr inbounds i8, ptr %this, i64 24
  %0 = load ptr, ptr %replacer, align 8
  %vtable = load ptr, ptr %0, align 8
  %vfn = getelementptr inbounds i8, ptr %vtable, i64 40
  %1 = load ptr, ptr %vfn, align 8
  %call = tail call noundef ptr %1(ptr noundef nonnull align 8 dereferenceable(8) %0)
  %vtable2 = load ptr, ptr %call, align 8
  %vfn3 = getelementptr inbounds i8, ptr %vtable2, i64 16
  %2 = load ptr, ptr %vfn3, align 8
  %call4 = tail call noundef i32 %2(ptr noundef nonnull align 8 dereferenceable(8) %call, ptr noundef nonnull align 8 dereferenceable(8) %text, i32 noundef %start, i32 noundef %limit, ptr noundef nonnull align 4 dereferenceable(4) %cursor)
  %add = add nsw i32 %call4, %start
  %translit = getelementptr inbounds i8, ptr %this, i64 16
  %3 = load ptr, ptr %translit, align 8
  %vtable5 = load ptr, ptr %3, align 8
  %vfn6 = getelementptr inbounds i8, ptr %vtable5, i64 32
  %4 = load ptr, ptr %vfn6, align 8
  %call7 = tail call noundef i32 %4(ptr noundef nonnull align 8 dereferenceable(84) %3, ptr noundef nonnull align 8 dereferenceable(8) %text, i32 noundef %start, i32 noundef %add)
  %sub = sub nsw i32 %call7, %start
  ret i32 %sub
}